target datalayout = "e-m:e-p270:32:32-p271:32:32-p272:64:64-i64:64-i128:128-f80:128-n8:16:32:64-S128"
target triple = "x86_64-pc-linux-gnu"

%struct.H5FD_sec2_t = type { %struct.H5FD_t, i32, i64, i64, i8, [1024 x i8], i64, i64, i8 }
%struct.H5FD_t = type { i64, ptr, i64, i32, i64, i64, i64, i64, i64, i8 }

@.str.4 = private unnamed_addr constant [102 x i8] c"generated/home/dtcxzyw/WorkSpace/Projects/compilers/llvm-opt-benchmark/bench/hdf5/hdf5/src/H5FDsec2.c\00", align 1
@H5E_ARGS_g = external global i64, align 8
@H5E_BADVALUE_g = external global i64, align 8
@H5E_OVERFLOW_g = external global i64, align 8
@H5E_IO_g = external global i64, align 8
@__func__.H5FD__sec2_read = private unnamed_addr constant [16 x i8] c"H5FD__sec2_read\00", align 1
@.str.22 = private unnamed_addr constant [28 x i8] c"addr undefined, addr = %llu\00", align 1
@.str.23 = private unnamed_addr constant [27 x i8] c"addr overflow, addr = %llu\00", align 1
@H5E_READERROR_g = external global i64, align 8
@.str.24 = private unnamed_addr constant [206 x i8] c"file read failed: time = %s, filename = '%s', file descriptor = %d, errno = %d, error message = '%s', buf = %p, total read size = %llu, bytes this sub-read = %llu, bytes actually read = %llu, offset = %llu\00", align 1

; Function Attrs: nounwind uwtable
define internal i32 @H5FD__sec2_read(ptr noundef %0, i32 noundef %1, i64 noundef %2, i64 noundef %3, i64 noundef %4, ptr noundef %5) #0 {
  %7 = alloca ptr, align 8
  %8 = alloca i32, align 4
  %9 = alloca i64, align 8
  %10 = alloca i64, align 8
  %11 = alloca i64, align 8
  %12 = alloca ptr, align 8
  %13 = alloca ptr, align 8
  %14 = alloca i64, align 8
  %15 = alloca i32, align 4
  %16 = alloca i8, align 1
  %17 = alloca i64, align 8
  %18 = alloca i64, align 8
  %19 = alloca i32, align 4
  %20 = alloca i64, align 8
  store ptr %0, ptr %7, align 8
  store i32 %1, ptr %8, align 4
  store i64 %2, ptr %9, align 8
  store i64 %3, ptr %10, align 8
  store i64 %4, ptr %11, align 8
  store ptr %5, ptr %12, align 8
  %21 = load ptr, ptr %7, align 8
  store ptr %21, ptr %13, align 8
  %22 = load i64, ptr %10, align 8
  store i64 %22, ptr %14, align 8
  store i32 0, ptr %15, align 4
  store i8 0, ptr %16, align 1
  %23 = load i64, ptr %10, align 8
  %24 = icmp ne i64 %23, -1
  br i1 %24, label %41, label %25

25:                                               ; preds = %6
  br label %26

26:                                               ; preds = %25
  br label %27

27:                                               ; preds = %26
  br label %28

28:                                               ; preds = %27
  %29 = load i64, ptr @H5E_ARGS_g, align 8
  %30 = load i64, ptr @H5E_BADVALUE_g, align 8
  %31 = load i64, ptr %10, align 8
  %32 = call i32 (ptr, ptr, i32, i64, i64, ptr, ...) @H5E_printf_stack(ptr noundef @.str.4, ptr noundef @__func__.H5FD__sec2_read, i32 noundef 663, i64 noundef %29, i64 noundef %30, ptr noundef @.str.22, i64 noundef %31)
  br label %33

33:                                               ; preds = %28
  store i8 1, ptr %16, align 1
  %34 = load i8, ptr %16, align 1
  %35 = trunc i8 %34 to i1
  %36 = zext i1 %35 to i8
  store i8 %36, ptr %16, align 1
  br label %37

37:                                               ; preds = %33
  br label %38

38:                                               ; preds = %37
  store i32 -1, ptr %15, align 4
  br label %171

39:                                               ; No predecessors!
  br label %40

40:                                               ; preds = %39
  br label %41

41:                                               ; preds = %40, %6
  %42 = load i64, ptr %10, align 8
  %43 = icmp eq i64 -1, %42
  br i1 %43, label %63, label %44

44:                                               ; preds = %41
  %45 = load i64, ptr %10, align 8
  %46 = and i64 %45, -9223372036854775808
  %47 = icmp ne i64 %46, 0
  br i1 %47, label %63, label %48

48:                                               ; preds = %44
  %49 = load i64, ptr %11, align 8
  %50 = and i64 %49, -9223372036854775808
  %51 = icmp ne i64 %50, 0
  br i1 %51, label %63, label %52

52:                                               ; preds = %48
  %53 = load i64, ptr %10, align 8
  %54 = load i64, ptr %11, align 8
  %55 = add i64 %53, %54
  %56 = icmp eq i64 -1, %55
  br i1 %56, label %63, label %57

57:                                               ; preds = %52
  %58 = load i64, ptr %10, align 8
  %59 = load i64, ptr %11, align 8
  %60 = add i64 %58, %59
  %61 = load i64, ptr %10, align 8
  %62 = icmp slt i64 %60, %61
  br i1 %62, label %63, label %79

63:                                               ; preds = %57, %52, %48, %44, %41
  br label %64

64:                                               ; preds = %63
  br label %65

65:                                               ; preds = %64
  br label %66

66:                                               ; preds = %65
  %67 = load i64, ptr @H5E_ARGS_g, align 8
  %68 = load i64, ptr @H5E_OVERFLOW_g, align 8
  %69 = load i64, ptr %10, align 8
  %70 = call i32 (ptr, ptr, i32, i64, i64, ptr, ...) @H5E_printf_stack(ptr noundef @.str.4, ptr noundef @__func__.H5FD__sec2_read, i32 noundef 665, i64 noundef %67, i64 noundef %68, ptr noundef @.str.23, i64 noundef %69)
  br label %71

71:                                               ; preds = %66
  store i8 1, ptr %16, align 1
  %72 = load i8, ptr %16, align 1
  %73 = trunc i8 %72 to i1
  %74 = zext i1 %73 to i8
  store i8 %74, ptr %16, align 1
  br label %75

75:                                               ; preds = %71
  br label %76

76:                                               ; preds = %75
  store i32 -1, ptr %15, align 4
  br label %171

77:                                               ; No predecessors!
  br label %78

78:                                               ; preds = %77
  br label %79

79:                                               ; preds = %78, %57
  br label %80

80:                                               ; preds = %160, %79
  %81 = load i64, ptr %11, align 8
  %82 = icmp ugt i64 %81, 0
  br i1 %82, label %83, label %170

83:                                               ; preds = %80
  store i64 0, ptr %17, align 8
  store i64 -1, ptr %18, align 8
  %84 = load i64, ptr %11, align 8
  %85 = icmp ugt i64 %84, 9223372036854775807
  br i1 %85, label %86, label %87

86:                                               ; preds = %83
  store i64 9223372036854775807, ptr %17, align 8
  br label %89

87:                                               ; preds = %83
  %88 = load i64, ptr %11, align 8
  store i64 %88, ptr %17, align 8
  br label %89

89:                                               ; preds = %87, %86
  br label %90

90:                                               ; preds = %112, %89
  %91 = load ptr, ptr %13, align 8
  %92 = getelementptr inbounds %struct.H5FD_sec2_t, ptr %91, i32 0, i32 1
  %93 = load i32, ptr %92, align 8
  %94 = load ptr, ptr %12, align 8
  %95 = load i64, ptr %17, align 8
  %96 = load i64, ptr %14, align 8
  %97 = call i64 @pread64(i32 noundef %93, ptr noundef %94, i64 noundef %95, i64 noundef %96)
  store i64 %97, ptr %18, align 8
  %98 = load i64, ptr %18, align 8
  %99 = icmp sgt i64 %98, 0
  br i1 %99, label %100, label %104

100:                                              ; preds = %90
  %101 = load i64, ptr %18, align 8
  %102 = load i64, ptr %14, align 8
  %103 = add nsw i64 %102, %101
  store i64 %103, ptr %14, align 8
  br label %104

104:                                              ; preds = %100, %90
  br label %105

105:                                              ; preds = %104
  %106 = load i64, ptr %18, align 8
  %107 = icmp eq i64 -1, %106
  br i1 %107, label %108, label %112

108:                                              ; preds = %105
  %109 = call ptr @__errno_location() #8
  %110 = load i32, ptr %109, align 4
  %111 = icmp eq i32 4, %110
  br label %112

112:                                              ; preds = %108, %105
  %113 = phi i1 [ false, %105 ], [ %111, %108 ]
  br i1 %113, label %90, label %114

114:                                              ; preds = %112
  %115 = load i64, ptr %18, align 8
  %116 = icmp eq i64 -1, %115
  br i1 %116, label %117, label %154

117:                                              ; preds = %114
  %118 = call ptr @__errno_location() #8
  %119 = load i32, ptr %118, align 4
  store i32 %119, ptr %19, align 4
  %120 = call i64 @time(ptr noundef null) #6
  store i64 %120, ptr %20, align 8
  %121 = load ptr, ptr %13, align 8
  %122 = getelementptr inbounds %struct.H5FD_sec2_t, ptr %121, i32 0, i32 1
  %123 = load i32, ptr %122, align 8
  %124 = call i64 @lseek64(i32 noundef %123, i64 noundef 0, i32 noundef 1) #6
  store i64 %124, ptr %14, align 8
  br label %125

125:                                              ; preds = %117
  br label %126

126:                                              ; preds = %125
  br label %127

127:                                              ; preds = %126
  %128 = load i64, ptr @H5E_IO_g, align 8
  %129 = load i64, ptr @H5E_READERROR_g, align 8
  %130 = call ptr @ctime(ptr noundef %20) #6
  %131 = load ptr, ptr %13, align 8
  %132 = getelementptr inbounds %struct.H5FD_sec2_t, ptr %131, i32 0, i32 5
  %133 = getelementptr inbounds [1024 x i8], ptr %132, i64 0, i64 0
  %134 = load ptr, ptr %13, align 8
  %135 = getelementptr inbounds %struct.H5FD_sec2_t, ptr %134, i32 0, i32 1
  %136 = load i32, ptr %135, align 8
  %137 = load i32, ptr %19, align 4
  %138 = load i32, ptr %19, align 4
  %139 = call ptr @strerror(i32 noundef %138) #6
  %140 = load ptr, ptr %12, align 8
  %141 = load i64, ptr %11, align 8
  %142 = load i64, ptr %17, align 8
  %143 = load i64, ptr %18, align 8
  %144 = load i64, ptr %14, align 8
  %145 = call i32 (ptr, ptr, i32, i64, i64, ptr, ...) @H5E_printf_stack(ptr noundef @.str.4, ptr noundef @__func__.H5FD__sec2_read, i32 noundef 711, i64 noundef %128, i64 noundef %129, ptr noundef @.str.24, ptr noundef %130, ptr noundef %133, i32 noundef %136, i32 noundef %137, ptr noundef %139, ptr noundef %140, i64 noundef %141, i64 noundef %142, i64 noundef %143, i64 noundef %144)
  br label %146

146:                                              ; preds = %127
  store i8 1, ptr %16, align 1
  %147 = load i8, ptr %16, align 1
  %148 = trunc i8 %147 to i1
  %149 = zext i1 %148 to i8
  store i8 %149, ptr %16, align 1
  br label %150

150:                                              ; preds = %146
  br label %151

151:                                              ; preds = %150
  store i32 -1, ptr %15, align 4
  br label %171

152:                                              ; No predecessors!
  br label %153

153:                                              ; preds = %152
  br label %154

154:                                              ; preds = %153, %114
  %155 = load i64, ptr %18, align 8
  %156 = icmp eq i64 0, %155
  br i1 %156, label %157, label %160

157:                                              ; preds = %154
  %158 = load ptr, ptr %12, align 8
  %159 = load i64, ptr %11, align 8
  call void @llvm.memset.p0.i64(ptr align 1 %158, i8 0, i64 %159, i1 false)
  br label %170

160:                                              ; preds = %154
  %161 = load i64, ptr %18, align 8
  %162 = load i64, ptr %11, align 8
  %163 = sub i64 %162, %161
  store i64 %163, ptr %11, align 8
  %164 = load i64, ptr %18, align 8
  %165 = load i64, ptr %10, align 8
  %166 = add i64 %165, %164
  store i64 %166, ptr %10, align 8
  %167 = load ptr, ptr %12, align 8
  %168 = load i64, ptr %18, align 8
  %169 = getelementptr inbounds i8, ptr %167, i64 %168
  store ptr %169, ptr %12, align 8
  br label %80

170:                                              ; preds = %157, %80
  br label %171

171:                                              ; preds = %170, %151, %76, %38
  %172 = load i32, ptr %15, align 4
  ret i32 %172
}