; Function Attrs: nounwind uwtable
define internal range(i32 -1, 1) i32 @H5FD__sec2_read(ptr noundef %0, i32 %1, i64 %2, i64 noundef %3, i64 noundef %4, ptr noundef %5) #0 {
  %7 = alloca i64, align 8
  %.not = icmp eq i64 %3, -1
  br i1 %.not, label %8, label %12

8:                                                ; preds = %6
  %9 = load i64, ptr @H5E_ARGS_g, align 8
  %10 = load i64, ptr @H5E_BADVALUE_g, align 8
  %11 = tail call i32 (ptr, ptr, i32, i64, i64, ptr, ...) @H5E_printf_stack(ptr noundef nonnull @.str.4, ptr noundef nonnull @__func__.H5FD__sec2_read, i32 noundef 663, i64 noundef %9, i64 noundef %10, ptr noundef nonnull @.str.22, i64 noundef -1) #15
  br label %.loopexit

12:                                               ; preds = %6
  %13 = or i64 %4, %3
  %or.cond = icmp slt i64 %13, 0
  %14 = add nuw i64 %4, %3
  %15 = icmp slt i64 %14, %3
  %or.cond64 = select i1 %or.cond, i1 true, i1 %15
  br i1 %or.cond64, label %17, label %.preheader

.preheader:                                       ; preds = %12
  %.not6078 = icmp eq i64 %4, 0
  br i1 %.not6078, label %.loopexit, label %.lr.ph

.lr.ph:                                           ; preds = %.preheader
  %16 = getelementptr inbounds i8, ptr %0, i64 80
  br label %21

17:                                               ; preds = %12
  %18 = load i64, ptr @H5E_ARGS_g, align 8
  %19 = load i64, ptr @H5E_OVERFLOW_g, align 8
  %20 = tail call i32 (ptr, ptr, i32, i64, i64, ptr, ...) @H5E_printf_stack(ptr noundef nonnull @.str.4, ptr noundef nonnull @__func__.H5FD__sec2_read, i32 noundef 665, i64 noundef %18, i64 noundef %19, ptr noundef nonnull @.str.23, i64 noundef %3) #15
  br label %.loopexit

21:                                               ; preds = %.lr.ph, %41
  %.04981 = phi i64 [ %3, %.lr.ph ], [ %spec.select, %41 ]
  %.05080 = phi i64 [ %4, %.lr.ph ], [ %42, %41 ]
  %.05179 = phi ptr [ %5, %.lr.ph ], [ %43, %41 ]
  %..050 = tail call i64 @llvm.umin.i64(i64 %.05080, i64 9223372036854775807)
  br label %22

22:                                               ; preds = %26, %21
  %.1 = phi i64 [ %.04981, %21 ], [ %spec.select, %26 ]
  %23 = load i32, ptr %16, align 8
  %24 = tail call i64 @pread64(i32 noundef %23, ptr noundef %.05179, i64 noundef %..050, i64 noundef %.1) #15
  %25 = tail call i64 @llvm.smax.i64(i64 %24, i64 0)
  %spec.select = add nsw i64 %25, %.1
  switch i64 %24, label %41 [
    i64 -1, label %26
    i64 0, label %40
  ]

26:                                               ; preds = %22
  %27 = tail call ptr @__errno_location() #17
  %28 = load i32, ptr %27, align 4
  %29 = icmp eq i32 %28, 4
  br i1 %29, label %22, label %.critedge

.critedge:                                        ; preds = %26
  %30 = tail call i64 @time(ptr noundef null) #15
  store i64 %30, ptr %7, align 8
  %31 = load i32, ptr %16, align 8
  %32 = tail call i64 @lseek64(i32 noundef %31, i64 noundef 0, i32 noundef 1) #15
  %33 = load i64, ptr @H5E_IO_g, align 8
  %34 = load i64, ptr @H5E_READERROR_g, align 8
  %35 = call ptr @ctime(ptr noundef nonnull %7) #15
  %36 = getelementptr inbounds i8, ptr %0, i64 105
  %37 = load i32, ptr %16, align 8
  %38 = call ptr @strerror(i32 noundef %28) #15
  %39 = call i32 (ptr, ptr, i32, i64, i64, ptr, ...) @H5E_printf_stack(ptr noundef nonnull @.str.4, ptr noundef nonnull @__func__.H5FD__sec2_read, i32 noundef 711, i64 noundef %33, i64 noundef %34, ptr noundef nonnull @.str.24, ptr noundef %35, ptr noundef nonnull %36, i32 noundef %37, i32 noundef %28, ptr noundef %38, ptr noundef %.05179, i64 noundef %.05080, i64 noundef %..050, i64 noundef -1, i64 noundef %32) #15
  br label %.loopexit

40:                                               ; preds = %22
  tail call void @llvm.memset.p0.i64(ptr align 1 %.05179, i8 0, i64 %.05080, i1 false)
  br label %.loopexit

41:                                               ; preds = %22
  %42 = sub i64 %.05080, %24
  %43 = getelementptr inbounds i8, ptr %.05179, i64 %24
  %.not60 = icmp eq i64 %42, 0
  br i1 %.not60, label %.loopexit, label %21

.loopexit:                                        ; preds = %41, %.preheader, %40, %.critedge, %17, %8
  %.048 = phi i32 [ -1, %17 ], [ -1, %.critedge ], [ 0, %40 ], [ -1, %8 ], [ 0, %.preheader ], [ 0, %41 ]
  ret i32 %.048
}